; Function Attrs: nofree norecurse nosync nounwind memory(argmem: readwrite) uwtable
define void @stbhw__draw_v_tile(ptr noundef writeonly captures(none) %0, i32 noundef %1, i32 noundef %2, i32 noundef %3, i32 noundef %4, i32 noundef %5, ptr noundef readonly captures(none) %6, i32 noundef %7) local_unnamed_addr #6 {
  %9 = icmp sgt i32 %7, 0
  br i1 %9, label %.lr.ph33.split.us.preheader, label %._crit_edge

.lr.ph33.split.us.preheader:                      ; preds = %8
  %10 = shl nuw i32 %7, 1
  %11 = getelementptr inbounds nuw i8, ptr %6, i64 6
  %12 = sext i32 %4 to i64
  %13 = sext i32 %2 to i64
  %14 = sext i32 %5 to i64
  %15 = sext i32 %3 to i64
  %16 = sext i32 %1 to i64
  %smax = tail call i32 @llvm.smax.i32(i32 %10, i32 1)
  %wide.trip.count39 = zext nneg i32 %smax to i64
  %wide.trip.count = zext nneg i32 %7 to i64
  br label %.lr.ph33.split.us

.lr.ph33.split.us:                                ; preds = %.lr.ph33.split.us.preheader, %..loopexit_crit_edge.us
  %indvars.iv36 = phi i64 [ 0, %.lr.ph33.split.us.preheader ], [ %indvars.iv.next37, %..loopexit_crit_edge.us ]
  %17 = add nsw i64 %indvars.iv36, %14
  %18 = icmp sgt i64 %17, -1
  %19 = icmp slt i64 %17, %15
  %or.cond.us = and i1 %18, %19
  br i1 %or.cond.us, label %.preheader.us, label %..loopexit_crit_edge.us

..loopexit_crit_edge.us:                          ; preds = %30, %.lr.ph33.split.us
  %indvars.iv.next37 = add nuw nsw i64 %indvars.iv36, 1
  %exitcond40.not = icmp eq i64 %indvars.iv.next37, %wide.trip.count39
  br i1 %exitcond40.not, label %._crit_edge, label %.lr.ph33.split.us, !llvm.loop !56

20:                                               ; preds = %.preheader.us, %30
  %indvars.iv = phi i64 [ 0, %.preheader.us ], [ %indvars.iv.next, %30 ]
  %21 = add nsw i64 %indvars.iv, %12
  %22 = icmp sgt i64 %21, -1
  %23 = icmp slt i64 %21, %13
  %or.cond29.us = and i1 %22, %23
  br i1 %or.cond29.us, label %24, label %30

24:                                               ; preds = %20
  %25 = add nuw nsw i64 %indvars.iv, %35
  %26 = mul nuw nsw i64 %25, 3
  %27 = getelementptr inbounds nuw [1 x i8], ptr %11, i64 0, i64 %26
  %28 = mul nuw nsw i64 %21, 3
  %29 = getelementptr inbounds nuw i8, ptr %32, i64 %28
  tail call void @llvm.memcpy.p0.p0.i64(ptr noundef nonnull align 1 dereferenceable(3) %29, ptr noundef nonnull readonly align 1 dereferenceable(3) %27, i64 3, i1 false)
  br label %30

30:                                               ; preds = %24, %20
  %indvars.iv.next = add nuw nsw i64 %indvars.iv, 1
  %exitcond.not = icmp eq i64 %indvars.iv.next, %wide.trip.count
  br i1 %exitcond.not, label %..loopexit_crit_edge.us, label %20, !llvm.loop !57

.preheader.us:                                    ; preds = %.lr.ph33.split.us
  %31 = mul nsw i64 %17, %16
  %32 = getelementptr inbounds i8, ptr %0, i64 %31
  %33 = trunc i64 %indvars.iv36 to i32
  %34 = mul i32 %7, %33
  %35 = zext i32 %34 to i64
  br label %20

._crit_edge:                                      ; preds = %..loopexit_crit_edge.us, %8
  ret void
}